Certificate:
    Data:
        Version: 1 (0x0)
        Serial Number: 1048577 (0x100001)
    Signature Algorithm: sha256WithRSAEncryption
        Issuer: C=IE, ST=Leinster, L=Dublin, O=Dummy, OU=Software, CN=dummy/root_server
        Validity
            Not Before: Dec 23 12:46:25 2015 GMT
            Not After : Dec 22 12:46:25 2025 GMT
        Subject: C=IE, ST=Leinster, L=Dublin, O=Dummy, OU=Software, CN=dummy/server
        Subject Public Key Info:
            Public Key Algorithm: rsaEncryption
                Public-Key: (2048 bit)
                Modulus:
                    00:c1:bb:12:93:59:fd:a0:4c:6c:b0:e0:16:e6:ec:
                    4a:c9:99:ff:00:30:30:9c:6a:d6:27:73:58:1e:79:
                    b5:36:5c:2a:4d:a9:7a:5c:58:d4:9c:fd:1a:3e:7b:
                    cf:82:00:93:b9:f0:ba:6b:34:36:cf:dd:c3:df:63:
                    19:89:83:fa:8f:b0:60:fe:26:22:9b:a0:d1:e2:ca:
                    27:1b:7f:dc:b7:29:e3:9d:88:1e:f9:06:ff:4c:0c:
                    41:f9:d3:b4:24:ff:d9:df:ed:48:e7:d8:cb:57:44:
                    fa:2e:4b:d4:96:d5:50:14:72:75:d1:8c:50:ca:a4:
                    17:44:b6:22:70:84:d6:22:c4:a0:fa:2a:94:39:ef:
                    22:ad:ba:df:a5:2a:ee:08:a1:a9:c7:1e:5e:3a:78:
                    f3:33:36:05:66:c6:7f:cb:dd:75:a5:0f:c7:aa:1b:
                    1e:b3:d2:49:a1:1c:3f:a2:e2:34:c4:f5:94:de:e7:
                    c7:4e:7e:cf:9a:54:62:a4:83:44:78:92:e9:14:70:
                    eb:39:64:fe:e2:1b:3f:a6:bf:9c:d6:26:5c:d7:e0:
                    c7:b2:35:4a:e4:f0:11:0f:0b:6a:db:df:9e:cf:bb:
                    bd:74:1f:48:e2:fd:aa:4b:ff:13:fc:05:1f:ee:8d:
                    35:e2:6c:f9:55:03:43:c6:ff:07:16:42:e3:93:74:
                    78:8f
                Exponent: 65537 (0x10001)
    Signature Algorithm: sha256WithRSAEncryption
         56:7c:6d:94:0e:5c:b7:88:2c:ea:bf:12:78:8d:88:04:e9:da:
         f9:2c:93:6e:66:7a:44:b3:46:87:dc:d8:59:0c:2e:1f:9a:cb:
         4b:aa:2d:1e:22:aa:ba:8c:a2:e2:8e:42:e0:d1:ee:95:c2:fc:
         92:8d:57:4c:e4:ce:71:1b:30:71:32:6e:ff:15:c7:0c:ec:5a:
         35:83:b5:a3:bf:7c:cb:d9:31:9f:76:91:0b:6c:77:3e:bb:bb:
         b5:ac:32:90:02:b7:41:7e:2f:8a:86:b2:7a:77:8e:df:5f:8a:
         e4:eb:e0:f0:49:57:c6:7b:b4:9f:b7:f2:f9:cc:5c:d1:83:54:
         fe:df:73:e8:77:4c:18:93:e9:da:89:eb:de:1b:a5:f7:fb:9f:
         14:9b:d4:cb:22:a4:43:1f:63:97:80:78:b4:28:44:90:f8:83:
         f4:73:a9:18:ee:c8:32:db:93:38:7f:11:8c:00:8f:0c:1f:09:
         29:a1:a2:d3:f0:19:22:fc:72:a5:3b:bb:29:fb:41:b8:dc:ee:
         1b:39:69:58:78:5e:18:9a:3b:6c:59:c5:ff:e1:95:42:ab:a5:
         8d:e7:fc:2a:86:29:96:b0:66:6c:37:9d:54:cc:77:0e:ba:19:
         ea:10:ef:60:09:15:9f:b3:5c:3f:b9:1c:ff:4f:d2:0d:a6:76:
         0d:aa:25:5d
-----BEGIN CERTIFICATE-----
MIIDUTCCAjkCAxAAATANBgkqhkiG9w0BAQsFADBwMQswCQYDVQQGEwJJRTERMA8G
A1UECBMITGVpbnN0ZXIxDzANBgNVBAcTBkR1YmxpbjEOMAwGA1UEChMFRHVtbXkx
ETAPBgNVBAsTCFNvZnR3YXJlMRowGAYDVQQDFBFkdW1teS9yb290X3NlcnZlcjAe
Fw0xNTEyMjMxMjQ2MjVaFw0yNTEyMjIxMjQ2MjVaMGsxCzAJBgNVBAYTAklFMREw
DwYDVQQIEwhMZWluc3RlcjEPMA0GA1UEBxMGRHVibGluMQ4wDAYDVQQKEwVEdW1t
eTERMA8GA1UECxMIU29mdHdhcmUxFTATBgNVBAMTDGR1bW15L3NlcnZlcjCCASIw
DQYJKoZIhvcNAQEBBQADggEPADCCAQoCggEBAMG7EpNZ/aBMbLDgFubsSsmZ/wAw
MJxq1idzWB55tTZcKk2pelxY1Jz9Gj57z4IAk7nwums0Ns/dw99jGYmD+o+wYP4m
Ipug0eLKJxt/3Lcp452IHvkG/0wMQfnTtCT/2d/tSOfYy1dE+i5L1JbVUBRyddGM
UMqkF0S2InCE1iLEoPoqlDnvIq2636Uq7gihqcceXjp48zM2BWbGf8vddaUPx6ob
HrPSSaEcP6LiNMT1lN7nx05+z5pUYqSDRHiS6RRw6zlk/uIbP6a/nNYmXNfgx7I1
SuTwEQ8Latvfns+7vXQfSOL9qkv/E/wFH+6NNeJs+VUDQ8b/BxZC45N0eI8CAwEA
ATANBgkqhkiG9w0BAQsFAAOCAQEAVnxtlA5ct4gs6r8SeI2IBOna+SyTbmZ6RLNG
h9zYWQwuH5rLS6otHiKquoyi4o5C4NHulcL8ko1XTOTOcRswcTJu/xXHDOxaNYO1
o798y9kxn3aRC2x3Pru7tawykAK3QX4vioayeneO31+K5Ovg8ElXxnu0n7fy+cxc
0YNU/t9z6HdMGJPp2onr3hul9/ufFJvUyyKkQx9jl4B4tChEkPiD9HOpGO7IMtuT
OH8RjACPDB8JKaGi0/AZIvxypTu7KftBuNzuGzlpWHheGJo7bFnF/+GVQquljef8
KoYplrBmbDedVMx3DroZ6hDvYAkVn7NcP7kc/0/SDaZ2DaolXQ==
-----END CERTIFICATE-----
