Certificate:
    Data:
        Version: 1 (0x0)
        Serial Number: 1048577 (0x100001)
    Signature Algorithm: sha256WithRSAEncryption
        Issuer: C=IE, ST=Leinster, L=Dublin, O=FreeCoAP, OU=Software, CN=www.freecoap.org/root_client
        Validity
            Not Before: Oct 22 18:57:21 2015 GMT
            Not After : Oct 21 18:57:21 2025 GMT
        Subject: C=IE, ST=Leinster, L=Dublin, O=FreeCoAP, OU=Software, CN=www.freecoap.org/client
        Subject Public Key Info:
            Public Key Algorithm: rsaEncryption
                Public-Key: (2048 bit)
                Modulus:
                    00:b9:5d:16:35:3c:e1:7a:58:47:ab:eb:51:ea:b0:
                    03:b8:af:ad:6c:dc:17:58:b1:b3:72:15:d0:dd:50:
                    8e:9c:a5:91:3a:ba:ed:70:ef:00:06:da:a8:cf:f2:
                    44:ba:b4:2a:84:90:d8:94:fd:07:53:a5:f0:8d:78:
                    10:7a:8a:bf:63:7f:cf:21:1f:ad:93:43:d0:03:e9:
                    47:d0:94:58:90:f7:b1:89:cb:44:45:c4:85:a6:09:
                    b4:2f:d5:13:5a:43:d2:f8:39:4e:d5:15:33:e9:68:
                    30:df:59:a2:ed:f1:26:24:2b:99:1a:f8:a6:e2:bd:
                    3d:dc:36:8f:92:1a:22:aa:ca:ac:ce:66:05:43:22:
                    0c:17:7a:96:02:8b:18:9b:50:14:c0:de:84:e1:9b:
                    5f:2f:8f:8f:c1:9e:21:c3:ef:69:b4:ae:4b:4f:5d:
                    4b:f6:75:92:ab:f1:ab:48:8f:e4:7b:48:8b:71:f4:
                    7d:96:a6:9d:c7:10:0a:0f:f2:f3:ac:da:cf:59:b8:
                    23:1d:9c:e5:59:f1:8e:94:66:ae:5b:8e:92:24:a7:
                    26:d1:19:8d:f1:d8:db:75:e0:e0:d6:7f:65:a7:af:
                    e6:e6:5e:b6:ff:a7:57:56:3d:83:a7:05:a3:3f:63:
                    cc:13:70:19:56:54:8c:03:34:19:44:08:b7:34:c9:
                    dd:8f
                Exponent: 65537 (0x10001)
    Signature Algorithm: sha256WithRSAEncryption
         98:13:ee:ee:36:82:74:4b:b9:57:84:18:38:16:e6:57:f9:6f:
         f9:5e:66:8a:2e:f2:84:5d:33:9d:bd:aa:2e:88:66:ed:12:1a:
         fd:86:20:59:58:fb:56:af:93:cb:10:9b:cc:3c:f0:29:a8:20:
         e5:ac:76:28:e2:d5:05:ef:cc:0a:8b:b4:d4:cc:1b:67:29:b6:
         75:4c:a1:c6:fc:f6:0c:09:77:8f:b2:cf:79:a6:a5:4e:3f:02:
         5e:3d:f0:43:82:e7:f7:26:c6:73:01:fd:7e:37:f3:72:9e:c6:
         8c:9f:4a:f8:1d:1e:26:2f:80:c1:1d:d0:0f:13:17:67:31:e8:
         34:8e:7f:22:45:52:12:26:cc:dd:ca:1c:8b:8a:a4:f9:44:c7:
         8d:3c:12:5f:bd:95:c4:dd:8a:45:db:5a:d5:c6:c3:be:32:c2:
         70:61:40:48:70:7b:2f:d9:62:76:74:25:a5:9b:af:77:8f:d4:
         d9:8f:16:8b:43:52:e9:68:f5:ed:c9:51:2e:f6:6d:e5:85:6f:
         ad:f6:51:24:ba:9a:72:a6:f4:4b:22:cf:82:75:d5:7e:75:d7:
         7d:91:05:ce:c7:b1:f7:8f:08:51:09:42:89:74:50:4d:5b:4e:
         d9:66:dd:d5:63:0f:61:60:50:af:78:77:7c:be:af:44:65:6a:
         32:08:98:15
-----BEGIN CERTIFICATE-----
MIIDbTCCAlUCAxAAATANBgkqhkiG9w0BAQsFADB+MQswCQYDVQQGEwJJRTERMA8G
A1UECBMITGVpbnN0ZXIxDzANBgNVBAcTBkR1YmxpbjERMA8GA1UEChMIRnJlZUNv
QVAxETAPBgNVBAsTCFNvZnR3YXJlMSUwIwYDVQQDFBx3d3cuZnJlZWNvYXAub3Jn
L3Jvb3RfY2xpZW50MB4XDTE1MTAyMjE4NTcyMVoXDTI1MTAyMTE4NTcyMVoweTEL
MAkGA1UEBhMCSUUxETAPBgNVBAgTCExlaW5zdGVyMQ8wDQYDVQQHEwZEdWJsaW4x
ETAPBgNVBAoTCEZyZWVDb0FQMREwDwYDVQQLEwhTb2Z0d2FyZTEgMB4GA1UEAxMX
d3d3LmZyZWVjb2FwLm9yZy9jbGllbnQwggEiMA0GCSqGSIb3DQEBAQUAA4IBDwAw
ggEKAoIBAQC5XRY1POF6WEer61HqsAO4r61s3BdYsbNyFdDdUI6cpZE6uu1w7wAG
2qjP8kS6tCqEkNiU/QdTpfCNeBB6ir9jf88hH62TQ9AD6UfQlFiQ97GJy0RFxIWm
CbQv1RNaQ9L4OU7VFTPpaDDfWaLt8SYkK5ka+KbivT3cNo+SGiKqyqzOZgVDIgwX
epYCixibUBTA3oThm18vj4/BniHD72m0rktPXUv2dZKr8atIj+R7SItx9H2Wpp3H
EAoP8vOs2s9ZuCMdnOVZ8Y6UZq5bjpIkpybRGY3x2Nt14ODWf2Wnr+bmXrb/p1dW
PYOnBaM/Y8wTcBlWVIwDNBlECLc0yd2PAgMBAAEwDQYJKoZIhvcNAQELBQADggEB
AJgT7u42gnRLuVeEGDgW5lf5b/leZoou8oRdM529qi6IZu0SGv2GIFlY+1avk8sQ
m8w88CmoIOWsdiji1QXvzAqLtNTMG2cptnVMocb89gwJd4+yz3mmpU4/Al498EOC
5/cmxnMB/X4383KexoyfSvgdHiYvgMEd0A8TF2cx6DSOfyJFUhImzN3KHIuKpPlE
x408El+9lcTdikXbWtXGw74ywnBhQEhwey/ZYnZ0JaWbr3eP1NmPFotDUulo9e3J
US72beWFb632USS6mnKm9Esiz4J11X51132RBc7HsfePCFEJQol0UE1bTtlm3dVj
D2FgUK94d3y+r0RlajIImBU=
-----END CERTIFICATE-----
