Certificate:
    Data:
        Version: 1 (0x0)
        Serial Number: 1048577 (0x100001)
        Signature Algorithm: md5WithRSAEncryption
        Issuer: C=IE, ST=Leinster, L=Dublin, O=FreeCoAP, OU=Software, CN=www.freecoap.org/root_client
        Validity
            Not Before: Aug  4 14:03:40 2015 GMT
            Not After : Aug  3 14:03:40 2018 GMT
        Subject: C=IE, ST=Leinster, L=Dublin, O=FreeCoAP, OU=Software, CN=www.freecoap.org/client
        Subject Public Key Info:
            Public Key Algorithm: rsaEncryption
            RSA Public Key: (2048 bit)
                Modulus (2048 bit):
                    00:cb:21:4b:ef:aa:e6:60:bf:9c:c1:36:44:b2:ac:
                    c3:b3:7d:5b:e4:2c:3a:3e:20:d4:75:83:a1:7a:1e:
                    52:cd:70:ed:59:62:fe:40:f1:43:3d:18:cb:ca:be:
                    41:9d:85:10:bb:2b:13:7e:34:72:9a:82:91:bc:f8:
                    e6:79:ef:6b:df:50:77:09:28:69:82:17:43:76:f2:
                    a6:80:82:a2:91:a5:50:65:92:f4:98:b6:e0:5f:58:
                    d6:58:1c:9d:dc:0b:fd:15:af:75:31:cf:78:8b:43:
                    e6:3e:2a:15:b2:6b:c0:45:40:c7:4f:11:1b:08:0f:
                    d8:14:2b:ab:ef:67:4d:55:b9:c5:11:52:74:e3:8b:
                    1e:bb:24:13:22:18:dc:a5:f6:bc:9a:0f:03:f3:78:
                    f3:e8:b9:bd:d8:0d:6e:32:3d:f7:88:1b:3e:ad:cf:
                    9d:79:0c:8b:b7:3f:37:26:6d:80:49:24:4c:fc:df:
                    1a:4d:88:38:b8:c5:ea:86:91:18:6c:88:7a:06:bf:
                    a3:90:df:98:f4:6c:25:23:7f:1e:d4:30:44:0c:bd:
                    47:a8:73:ad:98:ae:66:04:16:81:16:51:6d:3a:8f:
                    d6:1c:1b:d1:67:1d:6c:78:ea:9a:a9:f2:27:2d:2d:
                    8d:74:93:fc:1d:ae:90:ab:a3:ae:5b:da:cd:8f:82:
                    90:9d
                Exponent: 65537 (0x10001)
    Signature Algorithm: md5WithRSAEncryption
        8e:18:17:a4:f6:c8:0f:30:42:d3:4b:35:f5:17:6b:a1:eb:3b:
        6c:b0:6a:9d:5b:0a:2c:fe:3d:9a:59:1d:cb:ae:99:f8:c1:f4:
        62:38:52:76:c3:f9:a7:32:2a:79:1d:86:b1:81:1d:28:13:e0:
        82:94:50:1a:76:f9:ec:28:5e:e0:72:3a:fc:c0:83:a1:b4:e2:
        8a:45:95:99:54:8b:51:f3:a4:76:b4:32:28:7d:b2:ba:d2:28:
        6b:38:d9:7f:a4:45:df:8a:b0:d5:68:48:44:23:a3:63:fd:02:
        8f:e0:67:b4:9f:b8:e8:25:ae:9c:87:41:9f:3f:2d:0e:b9:a8:
        2b:27:25:fd:5e:d1:1d:a3:40:ab:42:c2:47:8f:57:56:e7:2e:
        b6:90:9f:f1:3c:85:52:a8:68:4d:a0:b5:e9:4c:76:47:71:35:
        c7:d6:20:d1:e9:12:86:63:96:37:f3:7e:1a:db:6b:6e:57:d6:
        c2:8c:a4:58:c1:67:91:9e:0a:82:35:f5:d4:7b:df:d5:f7:f1:
        be:c7:5a:17:34:3c:17:75:d4:34:35:e4:61:a6:74:8e:3f:3c:
        bd:b0:1d:ab:ad:e2:c7:94:38:05:f5:33:80:e4:5b:2d:f5:00:
        ae:d1:be:46:5e:b6:aa:29:c3:fd:c3:9e:2a:22:96:08:a1:1a:
        0d:94:d1:34
-----BEGIN CERTIFICATE-----
MIIDbTCCAlUCAxAAATANBgkqhkiG9w0BAQQFADB+MQswCQYDVQQGEwJJRTERMA8G
A1UECBMITGVpbnN0ZXIxDzANBgNVBAcTBkR1YmxpbjERMA8GA1UEChMIRnJlZUNv
QVAxETAPBgNVBAsTCFNvZnR3YXJlMSUwIwYDVQQDFBx3d3cuZnJlZWNvYXAub3Jn
L3Jvb3RfY2xpZW50MB4XDTE1MDgwNDE0MDM0MFoXDTE4MDgwMzE0MDM0MFoweTEL
MAkGA1UEBhMCSUUxETAPBgNVBAgTCExlaW5zdGVyMQ8wDQYDVQQHEwZEdWJsaW4x
ETAPBgNVBAoTCEZyZWVDb0FQMREwDwYDVQQLEwhTb2Z0d2FyZTEgMB4GA1UEAxMX
d3d3LmZyZWVjb2FwLm9yZy9jbGllbnQwggEiMA0GCSqGSIb3DQEBAQUAA4IBDwAw
ggEKAoIBAQDLIUvvquZgv5zBNkSyrMOzfVvkLDo+INR1g6F6HlLNcO1ZYv5A8UM9
GMvKvkGdhRC7KxN+NHKagpG8+OZ572vfUHcJKGmCF0N28qaAgqKRpVBlkvSYtuBf
WNZYHJ3cC/0Vr3Uxz3iLQ+Y+KhWya8BFQMdPERsID9gUK6vvZ01VucURUnTjix67
JBMiGNyl9ryaDwPzePPoub3YDW4yPfeIGz6tz515DIu3PzcmbYBJJEz83xpNiDi4
xeqGkRhsiHoGv6OQ35j0bCUjfx7UMEQMvUeoc62YrmYEFoEWUW06j9YcG9FnHWx4
6pqp8ictLY10k/wdrpCro65b2s2PgpCdAgMBAAEwDQYJKoZIhvcNAQEEBQADggEB
AI4YF6T2yA8wQtNLNfUXa6HrO2ywap1bCiz+PZpZHcuumfjB9GI4UnbD+acyKnkd
hrGBHSgT4IKUUBp2+ewoXuByOvzAg6G04opFlZlUi1HzpHa0Mih9srrSKGs42X+k
Rd+KsNVoSEQjo2P9Ao/gZ7SfuOglrpyHQZ8/LQ65qCsnJf1e0R2jQKtCwkePV1bn
LraQn/E8hVKoaE2gtelMdkdxNcfWINHpEoZjljfzfhrba25X1sKMpFjBZ5GeCoI1
9dR739X38b7HWhc0PBd11DQ15GGmdI4/PL2wHaut4seUOAX1M4DkWy31AK7RvkZe
tqopw/3DnioilgihGg2U0TQ=
-----END CERTIFICATE-----
