Certificate:
    Data:
        Version: 1 (0x0)
        Serial Number: 1048577 (0x100001)
    Signature Algorithm: ecdsa-with-SHA256
        Issuer: C=IE, ST=Leinster, L=Dublin, O=Dummy, OU=Software, CN=dummy/root_client
        Validity
            Not Before: Jul  8 16:39:28 2016 GMT
            Not After : Jul  8 16:39:28 2026 GMT
        Subject: C=IE, ST=Leinster, L=Dublin, O=Dummy, OU=Software, CN=dummy/client
        Subject Public Key Info:
            Public Key Algorithm: id-ecPublicKey
                Public-Key: (256 bit)
                pub: 
                    04:8a:1f:b6:75:68:a8:2f:2e:06:77:14:01:f3:e5:
                    fd:7e:6a:f4:ca:d1:07:77:f8:e7:16:a6:24:cf:c1:
                    c9:86:3e:d1:97:f2:b7:cf:a4:71:22:32:e1:16:b9:
                    e1:c5:29:42:9c:8f:0d:74:48:83:bd:b3:30:6a:e8:
                    2f:c1:41:86:8d
                ASN1 OID: prime256v1
    Signature Algorithm: ecdsa-with-SHA256
         30:44:02:20:0c:9f:46:4b:66:16:f5:c3:de:42:64:91:06:86:
         7c:83:21:f7:46:3e:c2:84:68:34:d2:24:52:62:6a:6b:80:5e:
         02:20:55:92:8f:02:5c:26:73:1e:7a:8b:b3:6f:7d:37:a1:7b:
         e8:c8:58:0d:19:29:86:58:31:46:95:a0:0a:cc:e0:50
-----BEGIN CERTIFICATE-----
MIIBxDCCAWsCAxAAATAKBggqhkjOPQQDAjBwMQswCQYDVQQGEwJJRTERMA8GA1UE
CBMITGVpbnN0ZXIxDzANBgNVBAcTBkR1YmxpbjEOMAwGA1UEChMFRHVtbXkxETAP
BgNVBAsTCFNvZnR3YXJlMRowGAYDVQQDFBFkdW1teS9yb290X2NsaWVudDAeFw0x
NjA3MDgxNjM5MjhaFw0yNjA3MDgxNjM5MjhaMGsxCzAJBgNVBAYTAklFMREwDwYD
VQQIEwhMZWluc3RlcjEPMA0GA1UEBxMGRHVibGluMQ4wDAYDVQQKEwVEdW1teTER
MA8GA1UECxMIU29mdHdhcmUxFTATBgNVBAMTDGR1bW15L2NsaWVudDBZMBMGByqG
SM49AgEGCCqGSM49AwEHA0IABIoftnVoqC8uBncUAfPl/X5q9MrRB3f45xamJM/B
yYY+0Zfyt8+kcSIy4Ra54cUpQpyPDXRIg72zMGroL8FBho0wCgYIKoZIzj0EAwID
RwAwRAIgDJ9GS2YW9cPeQmSRBoZ8gyH3Rj7ChGg00iRSYmprgF4CIFWSjwJcJnMe
eouzb303oXvoyFgNGSmGWDFGlaAKzOBQ
-----END CERTIFICATE-----
