Certificate:
    Data:
        Version: 1 (0x0)
        Serial Number: 1048577 (0x100001)
    Signature Algorithm: sha256WithRSAEncryption
        Issuer: C=IE, ST=Leinster, L=Dublin, O=Dummy, OU=Software, CN=dummy/root_client
        Validity
            Not Before: Dec 23 12:46:33 2015 GMT
            Not After : Dec 22 12:46:33 2025 GMT
        Subject: C=IE, ST=Leinster, L=Dublin, O=Dummy, OU=Software, CN=dummy/client
        Subject Public Key Info:
            Public Key Algorithm: rsaEncryption
                Public-Key: (2048 bit)
                Modulus:
                    00:a0:9f:44:6a:fb:92:74:1c:93:b2:db:4b:36:28:
                    02:ae:ae:85:40:7e:81:e1:be:eb:53:bc:63:4d:26:
                    44:b8:7b:37:f5:50:8f:93:49:05:8b:4d:23:b7:34:
                    24:d8:94:17:19:b9:50:aa:f3:10:c8:f4:d8:9b:fa:
                    4c:cb:35:f4:50:52:cf:38:9c:b4:29:d5:7e:97:b2:
                    a2:2a:70:f9:f8:6d:72:84:7e:23:a0:f4:81:d4:e8:
                    1c:22:3f:93:50:3d:4a:d4:e9:e6:68:2b:73:03:b5:
                    c7:b4:17:4e:5c:9c:03:f9:bd:01:82:37:30:0d:90:
                    2a:ee:0e:ec:9d:6c:01:88:75:e2:3d:b9:11:bf:bc:
                    01:00:9f:6b:76:06:48:fa:dc:b6:9a:64:5a:8b:30:
                    72:75:e8:38:d9:40:ff:ff:ac:50:4b:43:15:bf:ce:
                    ba:5d:22:01:85:ec:09:6a:6e:f4:ca:64:d2:cf:40:
                    c8:6d:cf:da:5b:e0:ab:11:5d:c5:6c:54:78:73:66:
                    57:9d:86:30:ba:71:41:d5:42:4f:f9:5f:a4:4d:6b:
                    ea:dc:72:55:a6:4a:85:a3:34:3d:5d:96:bd:04:7d:
                    5c:b7:95:09:d3:e6:eb:85:aa:ff:24:e2:c1:b8:97:
                    40:51:87:cb:03:5e:b0:41:8f:61:10:40:bf:4c:a0:
                    ee:87
                Exponent: 65537 (0x10001)
    Signature Algorithm: sha256WithRSAEncryption
         b4:a7:f8:b2:9d:e1:51:c8:f5:6e:c6:74:f9:56:6a:e8:0e:a4:
         10:e8:40:76:bf:15:45:29:cd:64:7e:7b:4a:3e:b2:74:00:a3:
         46:08:11:e3:86:68:26:e6:a4:1f:13:ed:1e:e7:9e:cc:ae:0d:
         33:1d:ca:1d:7d:6c:bd:d5:49:68:1c:fa:60:c3:8e:44:98:84:
         05:4f:bc:7e:63:78:57:68:48:e1:e5:c4:be:6c:d6:e3:ea:0c:
         62:48:81:ef:42:c4:3c:db:70:f7:d3:65:ee:3b:13:27:58:08:
         c0:8c:fa:62:67:24:86:24:d7:f4:74:8e:fd:08:de:52:e8:16:
         38:6a:8c:f6:f4:bf:8c:79:f5:c8:20:db:52:a3:42:8a:c5:30:
         d5:fe:7f:d2:c4:95:d6:54:74:57:f4:f6:7f:73:2f:3f:9f:b3:
         ff:46:04:de:a8:19:39:5d:60:b4:bd:d6:01:39:cd:c5:db:a2:
         49:b5:09:c5:7c:89:7e:73:6a:4f:19:2a:89:e9:51:fd:e4:b1:
         1b:20:48:47:72:77:9e:26:a5:9e:4d:9d:4b:c5:24:8d:06:fa:
         94:3b:af:89:ad:96:cf:94:c6:c3:04:7d:3e:c1:91:23:55:73:
         88:08:f8:20:57:53:43:85:cc:52:43:af:ea:b1:6d:21:c9:c4:
         ae:6e:5c:40
-----BEGIN CERTIFICATE-----
MIIDUTCCAjkCAxAAATANBgkqhkiG9w0BAQsFADBwMQswCQYDVQQGEwJJRTERMA8G
A1UECBMITGVpbnN0ZXIxDzANBgNVBAcTBkR1YmxpbjEOMAwGA1UEChMFRHVtbXkx
ETAPBgNVBAsTCFNvZnR3YXJlMRowGAYDVQQDFBFkdW1teS9yb290X2NsaWVudDAe
Fw0xNTEyMjMxMjQ2MzNaFw0yNTEyMjIxMjQ2MzNaMGsxCzAJBgNVBAYTAklFMREw
DwYDVQQIEwhMZWluc3RlcjEPMA0GA1UEBxMGRHVibGluMQ4wDAYDVQQKEwVEdW1t
eTERMA8GA1UECxMIU29mdHdhcmUxFTATBgNVBAMTDGR1bW15L2NsaWVudDCCASIw
DQYJKoZIhvcNAQEBBQADggEPADCCAQoCggEBAKCfRGr7knQck7LbSzYoAq6uhUB+
geG+61O8Y00mRLh7N/VQj5NJBYtNI7c0JNiUFxm5UKrzEMj02Jv6TMs19FBSzzic
tCnVfpeyoipw+fhtcoR+I6D0gdToHCI/k1A9StTp5mgrcwO1x7QXTlycA/m9AYI3
MA2QKu4O7J1sAYh14j25Eb+8AQCfa3YGSPrctppkWoswcnXoONlA//+sUEtDFb/O
ul0iAYXsCWpu9Mpk0s9AyG3P2lvgqxFdxWxUeHNmV52GMLpxQdVCT/lfpE1r6txy
VaZKhaM0PV2WvQR9XLeVCdPm64Wq/yTiwbiXQFGHywNesEGPYRBAv0yg7ocCAwEA
ATANBgkqhkiG9w0BAQsFAAOCAQEAtKf4sp3hUcj1bsZ0+VZq6A6kEOhAdr8VRSnN
ZH57Sj6ydACjRggR44ZoJuakHxPtHueezK4NMx3KHX1svdVJaBz6YMOORJiEBU+8
fmN4V2hI4eXEvmzW4+oMYkiB70LEPNtw99Nl7jsTJ1gIwIz6YmckhiTX9HSO/Qje
UugWOGqM9vS/jHn1yCDbUqNCisUw1f5/0sSV1lR0V/T2f3MvP5+z/0YE3qgZOV1g
tL3WATnNxduiSbUJxXyJfnNqTxkqielR/eSxGyBIR3J3nialnk2dS8UkjQb6lDuv
ia2Wz5TGwwR9PsGRI1VziAj4IFdTQ4XMUkOv6rFtIcnErm5cQA==
-----END CERTIFICATE-----
