Certificate:
    Data:
        Version: 1 (0x0)
        Serial Number: 1048577 (0x100001)
    Signature Algorithm: sha256WithRSAEncryption
        Issuer: C=IE, ST=Leinster, L=Dublin, O=Dummy, OU=Software, CN=dummy/root_client
        Validity
            Not Before: Nov  3 10:16:20 2016 GMT
            Not After : Nov  3 10:16:20 2026 GMT
        Subject: C=IE, ST=Leinster, L=Dublin, O=Dummy, OU=Software, CN=dummy/client
        Subject Public Key Info:
            Public Key Algorithm: rsaEncryption
                Public-Key: (2048 bit)
                Modulus:
                    00:eb:5b:99:1d:d8:49:4d:e1:6f:4b:01:f6:eb:8d:
                    eb:58:78:7c:82:81:8a:26:40:66:ef:cd:01:e1:ea:
                    38:99:b3:2d:92:5b:5b:82:3c:c2:99:d5:db:c9:31:
                    df:13:ac:5a:70:ee:c6:43:65:d1:6f:d3:94:30:c0:
                    0e:01:3e:e4:f6:0d:20:8c:24:d6:80:63:95:a9:46:
                    8c:bc:a2:8f:2e:22:17:02:40:30:1d:90:18:20:4b:
                    4b:cc:96:e2:02:7c:ba:fa:95:77:e6:af:a8:78:b1:
                    f4:27:70:d7:8f:2f:45:fd:42:ec:48:65:d9:c3:d9:
                    96:67:2f:fc:4d:4c:3e:46:db:1d:73:39:f6:12:37:
                    16:ff:39:5c:ee:3a:1e:a5:ee:98:20:23:fe:d9:9a:
                    dd:31:a0:f0:f6:c6:e6:c8:aa:50:05:51:17:6a:2c:
                    7a:6d:bc:93:11:ec:a6:8a:be:eb:f0:84:bf:ab:2b:
                    b8:b6:64:c4:9a:cd:73:5a:c6:c3:e0:1e:ee:e0:61:
                    86:37:e1:af:f4:fe:4e:44:8b:88:c5:01:96:71:bc:
                    7c:dc:36:f9:bb:9e:16:f5:68:b0:3e:06:8f:f8:43:
                    b2:25:fa:dc:5a:0a:62:ad:14:c0:52:92:d8:e3:bb:
                    96:9a:8c:bf:49:26:20:14:0f:d3:08:da:c5:3f:0c:
                    88:03
                Exponent: 65537 (0x10001)
    Signature Algorithm: sha256WithRSAEncryption
         cb:e9:6a:13:5e:47:f5:a7:f1:63:9b:e2:bd:47:fa:aa:85:2a:
         55:eb:9e:c6:73:d9:37:fc:68:69:bc:65:d7:41:4d:6c:32:25:
         44:32:6d:70:91:67:3f:1f:bf:46:08:65:9b:38:9e:1c:6a:4d:
         f6:83:cd:25:c5:a9:66:f1:d5:90:5c:f5:9f:62:fe:fc:97:99:
         a7:e1:e7:b7:d3:74:61:d5:63:22:9c:00:88:3d:e9:6f:ce:ba:
         ce:90:16:17:e1:9c:02:f6:3f:a1:27:37:a1:db:48:88:85:64:
         94:20:78:f6:c7:bd:db:9b:d4:bd:f6:59:01:d8:17:8c:15:29:
         8d:b3:42:81:40:e7:36:8c:13:8b:99:66:b1:93:b4:3b:ba:e9:
         5e:08:38:7a:b4:b1:21:b7:f5:ce:3a:e2:fd:0d:6e:ea:dc:27:
         48:7f:7f:14:1c:63:63:7f:a0:84:a1:65:31:3d:e8:f9:cd:f8:
         16:81:f4:76:68:64:d1:a4:3d:47:31:e2:f7:a8:b5:13:fb:44:
         dc:ae:88:a4:9c:0a:b5:82:78:80:0d:b7:6a:7e:71:9f:a7:09:
         ab:8a:cf:d6:95:fa:3c:0f:56:41:af:09:64:d9:39:32:a1:f6:
         d0:be:48:53:46:8a:fa:66:5e:a2:c1:e3:95:99:6d:85:af:b5:
         87:ba:a6:26
-----BEGIN CERTIFICATE-----
MIIDUTCCAjkCAxAAATANBgkqhkiG9w0BAQsFADBwMQswCQYDVQQGEwJJRTERMA8G
A1UECBMITGVpbnN0ZXIxDzANBgNVBAcTBkR1YmxpbjEOMAwGA1UEChMFRHVtbXkx
ETAPBgNVBAsTCFNvZnR3YXJlMRowGAYDVQQDFBFkdW1teS9yb290X2NsaWVudDAe
Fw0xNjExMDMxMDE2MjBaFw0yNjExMDMxMDE2MjBaMGsxCzAJBgNVBAYTAklFMREw
DwYDVQQIEwhMZWluc3RlcjEPMA0GA1UEBxMGRHVibGluMQ4wDAYDVQQKEwVEdW1t
eTERMA8GA1UECxMIU29mdHdhcmUxFTATBgNVBAMTDGR1bW15L2NsaWVudDCCASIw
DQYJKoZIhvcNAQEBBQADggEPADCCAQoCggEBAOtbmR3YSU3hb0sB9uuN61h4fIKB
iiZAZu/NAeHqOJmzLZJbW4I8wpnV28kx3xOsWnDuxkNl0W/TlDDADgE+5PYNIIwk
1oBjlalGjLyijy4iFwJAMB2QGCBLS8yW4gJ8uvqVd+avqHix9Cdw148vRf1C7Ehl
2cPZlmcv/E1MPkbbHXM59hI3Fv85XO46HqXumCAj/tma3TGg8PbG5siqUAVRF2os
em28kxHspoq+6/CEv6sruLZkxJrNc1rGw+Ae7uBhhjfhr/T+TkSLiMUBlnG8fNw2
+bueFvVosD4Gj/hDsiX63FoKYq0UwFKS2OO7lpqMv0kmIBQP0wjaxT8MiAMCAwEA
ATANBgkqhkiG9w0BAQsFAAOCAQEAy+lqE15H9afxY5vivUf6qoUqVeuexnPZN/xo
abxl10FNbDIlRDJtcJFnPx+/RghlmzieHGpN9oPNJcWpZvHVkFz1n2L+/JeZp+Hn
t9N0YdVjIpwAiD3pb866zpAWF+GcAvY/oSc3odtIiIVklCB49se925vUvfZZAdgX
jBUpjbNCgUDnNowTi5lmsZO0O7rpXgg4erSxIbf1zjri/Q1u6twnSH9/FBxjY3+g
hKFlMT3o+c34FoH0dmhk0aQ9RzHi96i1E/tE3K6IpJwKtYJ4gA23an5xn6cJq4rP
1pX6PA9WQa8JZNk5MqH20L5IU0aK+mZeosHjlZltha+1h7qmJg==
-----END CERTIFICATE-----
