Certificate:
    Data:
        Version: 1 (0x0)
        Serial Number: 1048577 (0x100001)
    Signature Algorithm: sha256WithRSAEncryption
        Issuer: C=IE, ST=Leinster, L=Dublin, O=Dummy, OU=Software, CN=dummy/root_server
        Validity
            Not Before: Nov  3 10:15:56 2016 GMT
            Not After : Nov  3 10:15:56 2026 GMT
        Subject: C=IE, ST=Leinster, L=Dublin, O=Dummy, OU=Software, CN=dummy/server
        Subject Public Key Info:
            Public Key Algorithm: rsaEncryption
                Public-Key: (2048 bit)
                Modulus:
                    00:d5:75:fd:3e:20:24:12:4c:e5:58:e4:44:4a:8e:
                    18:15:69:d8:ab:92:4d:e2:d6:0c:d2:da:ad:e9:80:
                    c5:88:4a:01:b9:55:a5:34:92:41:97:e8:1b:65:ad:
                    49:ae:f7:2c:12:e8:26:f8:37:e1:8c:68:84:91:33:
                    4f:2a:0d:da:de:a8:11:3c:6b:3a:99:ac:a7:11:76:
                    48:99:1f:5a:1a:49:2d:ff:7a:40:5c:b4:90:71:eb:
                    78:bf:49:ba:80:31:d4:e8:b3:45:28:c3:82:49:e6:
                    0f:b4:5a:7d:a6:24:7e:55:7d:c5:ae:d9:a5:f2:e2:
                    a1:0d:e4:b1:11:db:36:b6:19:84:7b:44:fb:e9:d4:
                    4b:cf:d7:ee:3e:5d:c6:a2:0e:ce:41:4d:fb:8c:91:
                    2f:ed:3c:f5:db:12:4b:81:76:22:64:a1:52:9a:e4:
                    46:08:43:1b:87:bd:0e:82:58:ab:39:28:c9:1b:a4:
                    93:78:2a:e5:2b:30:a0:2a:de:90:60:95:0e:16:a8:
                    6e:05:09:c9:9a:c9:cc:70:86:e7:d5:32:6f:fa:fc:
                    66:97:da:38:1f:34:86:b6:44:48:df:9b:45:5d:15:
                    8e:29:db:49:1c:f4:ca:32:7d:93:31:8e:4e:9b:05:
                    41:8d:59:ef:f2:2f:35:f6:08:92:df:cf:b1:71:52:
                    8c:1b
                Exponent: 65537 (0x10001)
    Signature Algorithm: sha256WithRSAEncryption
         5b:89:e7:42:06:8d:03:dc:5e:f1:e7:58:6f:81:45:f3:21:97:
         b1:b9:0f:7e:d0:3d:80:72:f9:aa:29:38:ba:c6:54:31:8c:20:
         4e:13:0c:78:55:96:af:bb:86:f2:f9:f2:a9:84:5d:3a:b0:c7:
         2f:2b:4d:46:de:7e:80:86:3c:1b:12:17:a7:1b:d2:cb:93:0b:
         c9:3c:01:63:08:33:95:9a:44:cd:fd:3a:d5:20:bf:a8:5f:3d:
         89:0e:7c:72:8a:42:83:3f:a8:92:12:8e:ff:11:df:52:53:91:
         f9:41:d2:71:df:2d:34:f3:68:98:35:4b:92:f7:b7:ec:59:82:
         22:fe:13:55:7a:b0:d1:8d:a2:29:a0:e7:ea:32:8d:fc:91:ae:
         14:bf:f8:1b:48:d1:b1:4c:22:01:74:66:12:8e:3e:e9:23:ec:
         f9:b7:69:75:56:1f:46:5b:30:16:fe:9c:63:c9:f3:8a:48:aa:
         30:49:a1:c9:60:36:2a:5c:a3:08:09:4a:7e:a2:b6:57:92:54:
         fc:6f:2b:95:82:bd:cd:32:dc:d4:2d:0b:15:80:ff:65:e7:f5:
         8d:b5:7d:a9:8a:89:ba:79:f1:03:12:8f:2a:ca:2a:87:93:23:
         b7:9f:32:32:42:0b:2a:e2:99:85:6d:df:97:75:8f:c7:45:b0:
         41:c1:2e:a3
-----BEGIN CERTIFICATE-----
MIIDUTCCAjkCAxAAATANBgkqhkiG9w0BAQsFADBwMQswCQYDVQQGEwJJRTERMA8G
A1UECBMITGVpbnN0ZXIxDzANBgNVBAcTBkR1YmxpbjEOMAwGA1UEChMFRHVtbXkx
ETAPBgNVBAsTCFNvZnR3YXJlMRowGAYDVQQDFBFkdW1teS9yb290X3NlcnZlcjAe
Fw0xNjExMDMxMDE1NTZaFw0yNjExMDMxMDE1NTZaMGsxCzAJBgNVBAYTAklFMREw
DwYDVQQIEwhMZWluc3RlcjEPMA0GA1UEBxMGRHVibGluMQ4wDAYDVQQKEwVEdW1t
eTERMA8GA1UECxMIU29mdHdhcmUxFTATBgNVBAMTDGR1bW15L3NlcnZlcjCCASIw
DQYJKoZIhvcNAQEBBQADggEPADCCAQoCggEBANV1/T4gJBJM5VjkREqOGBVp2KuS
TeLWDNLaremAxYhKAblVpTSSQZfoG2WtSa73LBLoJvg34YxohJEzTyoN2t6oETxr
OpmspxF2SJkfWhpJLf96QFy0kHHreL9JuoAx1OizRSjDgknmD7RafaYkflV9xa7Z
pfLioQ3ksRHbNrYZhHtE++nUS8/X7j5dxqIOzkFN+4yRL+089dsSS4F2ImShUprk
RghDG4e9DoJYqzkoyRukk3gq5SswoCrekGCVDhaobgUJyZrJzHCG59Uyb/r8Zpfa
OB80hrZESN+bRV0VjinbSRz0yjJ9kzGOTpsFQY1Z7/IvNfYIkt/PsXFSjBsCAwEA
ATANBgkqhkiG9w0BAQsFAAOCAQEAW4nnQgaNA9xe8edYb4FF8yGXsbkPftA9gHL5
qik4usZUMYwgThMMeFWWr7uG8vnyqYRdOrDHLytNRt5+gIY8GxIXpxvSy5MLyTwB
YwgzlZpEzf061SC/qF89iQ58copCgz+okhKO/xHfUlOR+UHScd8tNPNomDVLkve3
7FmCIv4TVXqw0Y2iKaDn6jKN/JGuFL/4G0jRsUwiAXRmEo4+6SPs+bdpdVYfRlsw
Fv6cY8nzikiqMEmhyWA2KlyjCAlKfqK2V5JU/G8rlYK9zTLc1C0LFYD/Zef1jbV9
qYqJunnxAxKPKsoqh5Mjt58yMkILKuKZhW3fl3WPx0WwQcEuow==
-----END CERTIFICATE-----
