Certificate:
    Data:
        Version: 1 (0x0)
        Serial Number: 1048577 (0x100001)
    Signature Algorithm: ecdsa-with-SHA256
        Issuer: C=IE, ST=Leinster, L=Dublin, O=Dummy, OU=Software, CN=dummy/root_server
        Validity
            Not Before: Jul  8 16:39:22 2016 GMT
            Not After : Jul  8 16:39:22 2026 GMT
        Subject: C=IE, ST=Leinster, L=Dublin, O=Dummy, OU=Software, CN=dummy/server
        Subject Public Key Info:
            Public Key Algorithm: id-ecPublicKey
                Public-Key: (256 bit)
                pub: 
                    04:2f:7c:08:3e:21:48:92:d2:e4:92:4d:60:4a:83:
                    3d:ce:48:44:2f:4a:3b:f7:75:c6:0e:9f:9f:72:d4:
                    1f:09:2b:ae:d6:9e:90:3d:e8:6b:c1:ca:e0:d0:b4:
                    d1:9e:73:4d:c5:a4:d9:4e:9e:6e:d8:ee:1b:85:d6:
                    40:0f:ac:53:2b
                ASN1 OID: prime256v1
    Signature Algorithm: ecdsa-with-SHA256
         30:45:02:21:00:b9:a0:6d:26:81:3f:d7:57:ae:88:cb:2f:85:
         35:54:f3:cd:b2:e6:04:86:c4:7b:02:3f:ff:47:2e:1c:1e:89:
         fd:02:20:30:75:b6:d5:ef:12:e7:fe:4f:1d:dd:0f:e2:35:c9:
         a9:ec:35:f7:e0:28:06:ef:78:56:24:21:3e:ac:24:4e:f3
-----BEGIN CERTIFICATE-----
MIIBxTCCAWsCAxAAATAKBggqhkjOPQQDAjBwMQswCQYDVQQGEwJJRTERMA8GA1UE
CBMITGVpbnN0ZXIxDzANBgNVBAcTBkR1YmxpbjEOMAwGA1UEChMFRHVtbXkxETAP
BgNVBAsTCFNvZnR3YXJlMRowGAYDVQQDFBFkdW1teS9yb290X3NlcnZlcjAeFw0x
NjA3MDgxNjM5MjJaFw0yNjA3MDgxNjM5MjJaMGsxCzAJBgNVBAYTAklFMREwDwYD
VQQIEwhMZWluc3RlcjEPMA0GA1UEBxMGRHVibGluMQ4wDAYDVQQKEwVEdW1teTER
MA8GA1UECxMIU29mdHdhcmUxFTATBgNVBAMTDGR1bW15L3NlcnZlcjBZMBMGByqG
SM49AgEGCCqGSM49AwEHA0IABC98CD4hSJLS5JJNYEqDPc5IRC9KO/d1xg6fn3LU
HwkrrtaekD3oa8HK4NC00Z5zTcWk2U6ebtjuG4XWQA+sUyswCgYIKoZIzj0EAwID
SAAwRQIhALmgbSaBP9dXrojLL4U1VPPNsuYEhsR7Aj//Ry4cHon9AiAwdbbV7xLn
/k8d3Q/iNcmp7DX34CgG73hWJCE+rCRO8w==
-----END CERTIFICATE-----
