Certificate:
    Data:
        Version: 1 (0x0)
        Serial Number: 1048577 (0x100001)
    Signature Algorithm: sha256WithRSAEncryption
        Issuer: C=IE, ST=Leinster, L=Dublin, O=FreeCoAP, OU=Software, CN=www.freecoap.org/root_server
        Validity
            Not Before: Oct 22 18:57:08 2015 GMT
            Not After : Oct 21 18:57:08 2025 GMT
        Subject: C=IE, ST=Leinster, L=Dublin, O=FreeCoAP, OU=Software, CN=www.freecoap.org/server
        Subject Public Key Info:
            Public Key Algorithm: rsaEncryption
                Public-Key: (2048 bit)
                Modulus:
                    00:d8:ad:16:7f:f7:32:8f:1b:95:15:63:48:ff:42:
                    d5:9f:70:23:dc:77:b4:a0:1e:06:07:3e:5a:1a:d2:
                    6f:30:62:3f:e0:d8:0a:91:3e:c0:47:d3:f2:8e:0f:
                    78:56:32:04:c1:8a:1f:9b:a3:90:ce:07:bd:41:b7:
                    9e:a2:34:61:e9:a6:e2:0d:1e:6b:ac:8a:36:bc:2e:
                    a7:a8:f1:4c:10:11:a8:ff:41:92:26:3a:0e:b3:a3:
                    c4:4a:37:e7:64:39:fc:5e:33:9a:11:7d:4d:f3:f2:
                    5c:83:bb:c7:3a:62:9e:01:4f:e5:7c:e8:dd:c8:e5:
                    bd:ab:d2:c2:de:83:92:94:41:9c:7b:5b:6a:8c:df:
                    6c:14:ea:1f:96:38:c0:9e:d4:76:d1:c9:6b:70:a1:
                    a9:72:eb:5d:f9:77:c3:74:05:1c:60:2f:4f:e4:98:
                    d8:45:98:66:f3:e3:46:de:99:27:df:c6:ff:f4:c4:
                    df:0a:e0:ca:9d:36:37:c6:8a:4e:6b:aa:d0:5d:0d:
                    56:46:0e:3b:eb:5b:81:ea:b6:c7:60:b6:dc:b8:42:
                    4d:6d:2c:d0:18:ca:e5:bb:ad:4b:15:2a:6b:e6:b8:
                    6a:10:53:e3:f7:da:9d:62:36:7e:5a:ef:19:1d:f6:
                    95:84:a3:78:a9:5d:06:fa:2b:18:20:74:6c:57:c2:
                    93:1f
                Exponent: 65537 (0x10001)
    Signature Algorithm: sha256WithRSAEncryption
         65:6a:89:1a:81:de:4d:06:54:9b:5e:86:6c:b4:6e:3f:fc:63:
         10:9d:97:b5:37:45:62:1d:67:50:a8:9f:f7:f9:df:4f:61:39:
         9a:c6:54:50:26:f3:e4:51:53:e5:d2:10:21:80:ef:1b:2a:16:
         53:86:37:1a:a4:c2:50:33:b7:ff:9e:2e:93:c9:3a:0d:47:9d:
         dc:0f:99:07:65:d0:c3:73:ec:dd:e6:3d:03:0e:d1:fb:d4:a1:
         8b:42:bd:ab:77:2e:9f:4a:23:82:2f:f9:92:ff:26:0e:92:50:
         0b:3e:06:50:54:58:e9:0c:72:87:67:37:1d:75:26:62:b6:5a:
         95:78:e1:5e:bd:ff:f6:93:61:bc:12:e9:1f:d9:66:5a:42:ed:
         69:03:32:cb:87:a8:e1:c7:57:73:77:71:c1:78:88:0b:55:58:
         f9:ca:74:32:42:8a:e7:49:3f:a9:83:a7:a5:7e:6d:ca:c9:ee:
         d9:94:7d:ae:82:23:fc:24:5a:a2:2c:45:6f:4a:c7:22:95:4f:
         8c:18:73:57:1a:d5:22:cc:2a:87:e4:61:50:0a:0e:c4:14:b6:
         c0:72:7c:27:ee:6b:8c:34:f5:14:36:e4:51:37:c3:47:eb:96:
         50:e7:24:92:38:0b:8f:08:02:ec:af:0e:93:3a:fb:61:8e:e4:
         74:31:88:b4
-----BEGIN CERTIFICATE-----
MIIDbTCCAlUCAxAAATANBgkqhkiG9w0BAQsFADB+MQswCQYDVQQGEwJJRTERMA8G
A1UECBMITGVpbnN0ZXIxDzANBgNVBAcTBkR1YmxpbjERMA8GA1UEChMIRnJlZUNv
QVAxETAPBgNVBAsTCFNvZnR3YXJlMSUwIwYDVQQDFBx3d3cuZnJlZWNvYXAub3Jn
L3Jvb3Rfc2VydmVyMB4XDTE1MTAyMjE4NTcwOFoXDTI1MTAyMTE4NTcwOFoweTEL
MAkGA1UEBhMCSUUxETAPBgNVBAgTCExlaW5zdGVyMQ8wDQYDVQQHEwZEdWJsaW4x
ETAPBgNVBAoTCEZyZWVDb0FQMREwDwYDVQQLEwhTb2Z0d2FyZTEgMB4GA1UEAxMX
d3d3LmZyZWVjb2FwLm9yZy9zZXJ2ZXIwggEiMA0GCSqGSIb3DQEBAQUAA4IBDwAw
ggEKAoIBAQDYrRZ/9zKPG5UVY0j/QtWfcCPcd7SgHgYHPloa0m8wYj/g2AqRPsBH
0/KOD3hWMgTBih+bo5DOB71Bt56iNGHppuINHmusija8Lqeo8UwQEaj/QZImOg6z
o8RKN+dkOfxeM5oRfU3z8lyDu8c6Yp4BT+V86N3I5b2r0sLeg5KUQZx7W2qM32wU
6h+WOMCe1HbRyWtwoaly6135d8N0BRxgL0/kmNhFmGbz40bemSffxv/0xN8K4Mqd
NjfGik5rqtBdDVZGDjvrW4Hqtsdgtty4Qk1tLNAYyuW7rUsVKmvmuGoQU+P32p1i
Nn5a7xkd9pWEo3ipXQb6KxggdGxXwpMfAgMBAAEwDQYJKoZIhvcNAQELBQADggEB
AGVqiRqB3k0GVJtehmy0bj/8YxCdl7U3RWIdZ1Con/f5309hOZrGVFAm8+RRU+XS
ECGA7xsqFlOGNxqkwlAzt/+eLpPJOg1HndwPmQdl0MNz7N3mPQMO0fvUoYtCvat3
Lp9KI4Iv+ZL/Jg6SUAs+BlBUWOkMcodnNx11JmK2WpV44V69//aTYbwS6R/ZZlpC
7WkDMsuHqOHHV3N3ccF4iAtVWPnKdDJCiudJP6mDp6V+bcrJ7tmUfa6CI/wkWqIs
RW9KxyKVT4wYc1ca1SLMKofkYVAKDsQUtsByfCfua4w09RQ25FE3w0frllDnJJI4
C48IAuyvDpM6+2GO5HQxiLQ=
-----END CERTIFICATE-----
