Certificate:
    Data:
        Version: 1 (0x0)
        Serial Number: 1048577 (0x100001)
        Signature Algorithm: md5WithRSAEncryption
        Issuer: C=IE, ST=Leinster, L=Dublin, O=FreeCoAP, OU=Software, CN=www.freecoap.org/root_server
        Validity
            Not Before: Aug  4 13:59:53 2015 GMT
            Not After : Aug  3 13:59:53 2018 GMT
        Subject: C=IE, ST=Leinster, L=Dublin, O=FreeCoAP, OU=Software, CN=www.freecoap.org/server
        Subject Public Key Info:
            Public Key Algorithm: rsaEncryption
            RSA Public Key: (2048 bit)
                Modulus (2048 bit):
                    00:c2:a6:9d:45:dc:b1:27:1b:c6:27:c4:39:c9:ce:
                    81:d6:d0:62:b2:9e:d0:ec:91:e1:66:dc:1e:2a:8e:
                    1e:1f:c8:94:53:31:0b:6d:7b:fc:8b:13:33:1b:69:
                    4b:38:a0:c4:9e:07:01:6e:55:5b:c7:40:fa:8d:69:
                    0c:bf:c1:e9:e4:2f:3d:1e:1b:67:92:35:f5:56:6b:
                    13:a9:d0:36:a2:38:c6:52:3c:3f:1f:c2:6c:24:a0:
                    e0:e0:63:a3:5f:42:23:a4:7c:3a:5c:67:6b:ac:5c:
                    36:66:07:95:9a:be:2a:7c:f8:7c:d9:d1:ca:e6:76:
                    d0:a1:d1:0e:60:c3:66:f7:e6:43:1f:04:7b:cb:83:
                    36:c2:35:da:b4:f3:e3:62:8e:30:31:28:ed:7d:78:
                    5b:99:d3:5a:7a:00:30:cb:e3:f3:c7:4a:98:5a:8c:
                    7f:bc:fc:2d:44:1d:3b:f4:a3:e7:5c:45:f6:5f:3d:
                    ae:b2:0c:7c:f9:bc:d0:99:73:3e:66:c5:f6:e3:37:
                    4e:f6:1d:73:4c:0c:7c:f2:d5:7d:ce:18:77:d2:a5:
                    8b:e9:6c:66:76:0e:cc:5f:d8:74:f0:1c:de:df:5b:
                    dc:87:53:b2:3f:89:6f:c6:48:9e:a0:a1:0a:16:6f:
                    99:22:a1:cb:91:37:37:6e:03:eb:a5:00:15:b8:bb:
                    19:79
                Exponent: 65537 (0x10001)
    Signature Algorithm: md5WithRSAEncryption
        78:66:80:29:83:c8:43:49:04:9f:bd:6e:5b:03:7a:64:cc:00:
        2f:76:3c:67:29:81:60:08:9a:cf:70:00:6d:95:23:3d:42:1a:
        23:ed:81:c8:08:4a:d2:84:46:9a:a7:c6:78:dc:b3:ae:9c:9a:
        91:f7:3e:8b:c9:12:88:b9:17:2c:17:84:19:3a:4e:41:45:9e:
        7a:95:dc:7e:cb:59:9f:0c:ed:6b:1f:d7:4a:da:71:ad:6d:e5:
        a6:64:03:c2:66:ae:61:c3:2e:d6:22:8b:fe:87:a9:00:47:9f:
        29:a1:84:f9:05:27:10:c2:7b:be:fd:39:21:3f:1b:36:17:dc:
        db:06:52:13:86:61:2a:aa:fa:b5:e2:25:f5:85:f2:1e:a6:3f:
        cf:72:ad:b2:7a:0e:42:f9:81:6a:62:d7:44:d6:3b:79:f8:18:
        03:5f:7c:96:4f:69:a1:54:e8:dd:6c:fc:09:91:80:2c:2c:2d:
        80:65:a3:b5:48:19:27:f0:3b:94:be:44:06:54:02:a2:af:e5:
        bd:31:9c:a5:f2:89:0b:5b:72:91:cb:99:16:22:4b:f2:d0:15:
        c3:17:e2:15:d0:57:56:5c:8e:25:72:2a:27:6b:14:ca:cf:56:
        0d:a6:49:62:d2:cf:3b:53:bd:ba:f3:50:27:e7:1e:aa:9e:3b:
        b7:cd:af:8c
-----BEGIN CERTIFICATE-----
MIIDbTCCAlUCAxAAATANBgkqhkiG9w0BAQQFADB+MQswCQYDVQQGEwJJRTERMA8G
A1UECBMITGVpbnN0ZXIxDzANBgNVBAcTBkR1YmxpbjERMA8GA1UEChMIRnJlZUNv
QVAxETAPBgNVBAsTCFNvZnR3YXJlMSUwIwYDVQQDFBx3d3cuZnJlZWNvYXAub3Jn
L3Jvb3Rfc2VydmVyMB4XDTE1MDgwNDEzNTk1M1oXDTE4MDgwMzEzNTk1M1oweTEL
MAkGA1UEBhMCSUUxETAPBgNVBAgTCExlaW5zdGVyMQ8wDQYDVQQHEwZEdWJsaW4x
ETAPBgNVBAoTCEZyZWVDb0FQMREwDwYDVQQLEwhTb2Z0d2FyZTEgMB4GA1UEAxMX
d3d3LmZyZWVjb2FwLm9yZy9zZXJ2ZXIwggEiMA0GCSqGSIb3DQEBAQUAA4IBDwAw
ggEKAoIBAQDCpp1F3LEnG8YnxDnJzoHW0GKyntDskeFm3B4qjh4fyJRTMQtte/yL
EzMbaUs4oMSeBwFuVVvHQPqNaQy/wenkLz0eG2eSNfVWaxOp0DaiOMZSPD8fwmwk
oODgY6NfQiOkfDpcZ2usXDZmB5Wavip8+HzZ0crmdtCh0Q5gw2b35kMfBHvLgzbC
Ndq08+NijjAxKO19eFuZ01p6ADDL4/PHSphajH+8/C1EHTv0o+dcRfZfPa6yDHz5
vNCZcz5mxfbjN072HXNMDHzy1X3OGHfSpYvpbGZ2Dsxf2HTwHN7fW9yHU7I/iW/G
SJ6goQoWb5kiocuRNzduA+ulABW4uxl5AgMBAAEwDQYJKoZIhvcNAQEEBQADggEB
AHhmgCmDyENJBJ+9blsDemTMAC92PGcpgWAIms9wAG2VIz1CGiPtgcgIStKERpqn
xnjcs66cmpH3PovJEoi5FywXhBk6TkFFnnqV3H7LWZ8M7Wsf10raca1t5aZkA8Jm
rmHDLtYii/6HqQBHnymhhPkFJxDCe779OSE/GzYX3NsGUhOGYSqq+rXiJfWF8h6m
P89yrbJ6DkL5gWpi10TWO3n4GANffJZPaaFU6N1s/AmRgCwsLYBlo7VIGSfwO5S+
RAZUAqKv5b0xnKXyiQtbcpHLmRYiS/LQFcMX4hXQV1ZcjiVyKidrFMrPVg2mSWLS
zztTvbrzUCfnHqqeO7fNr4w=
-----END CERTIFICATE-----
